target datalayout = "e-m:e-p270:32:32-p271:32:32-p272:64:64-i64:64-i128:128-f80:128-n8:16:32:64-S128"
target triple = "x86_64-pc-linux-gnu"

%struct.lua_State = type { ptr, i8, i8, i8, i8, i16, %union.StkIdRel, ptr, ptr, %union.StkIdRel, %union.StkIdRel, ptr, %union.StkIdRel, ptr, ptr, ptr, %struct.CallInfo, ptr, i64, i32, i32, i32, i32, i32, %struct.anon.2 }
%union.StkIdRel = type { ptr }
%struct.CallInfo = type { %union.StkIdRel, %union.StkIdRel, ptr, ptr, %union.anon, %union.anon.1, i32 }
%union.anon = type { %struct.anon.0 }
%struct.anon.0 = type { ptr, i64, i64 }
%union.anon.1 = type { i32 }
%struct.anon.2 = type { i32, i32 }
%struct.lua_Debug = type { i32, ptr, ptr, ptr, ptr, i64, i32, i32, i32, i8, i8, i8, i8, i8, i32, i32, [60 x i8], ptr }

; Function Attrs: nounwind uwtable
define dso_local i32 @lua_getstack(ptr noundef %0, i32 noundef %1, ptr noundef %2) #0 {
  %4 = alloca i32, align 4
  %5 = alloca ptr, align 8
  %6 = alloca i32, align 4
  %7 = alloca ptr, align 8
  %8 = alloca i32, align 4
  %9 = alloca ptr, align 8
  %10 = alloca i32, align 4
  store ptr %0, ptr %5, align 8, !tbaa !30
  store i32 %1, ptr %6, align 4, !tbaa !9
  store ptr %2, ptr %7, align 8, !tbaa !50
  call void @llvm.lifetime.start.p0(i64 4, ptr %8) #8
  call void @llvm.lifetime.start.p0(i64 8, ptr %9) #8
  %11 = load i32, ptr %6, align 4, !tbaa !9
  %12 = icmp slt i32 %11, 0
  br i1 %12, label %13, label %14

13:                                               ; preds = %3
  store i32 0, ptr %4, align 4
  store i32 1, ptr %10, align 4
  br label %50

14:                                               ; preds = %3
  %15 = load ptr, ptr %5, align 8, !tbaa !30
  %16 = getelementptr inbounds nuw %struct.lua_State, ptr %15, i32 0, i32 8
  %17 = load ptr, ptr %16, align 8, !tbaa !46
  store ptr %17, ptr %9, align 8, !tbaa !47
  br label %18

18:                                               ; preds = %31, %14
  %19 = load i32, ptr %6, align 4, !tbaa !9
  %20 = icmp sgt i32 %19, 0
  br i1 %20, label %21, label %26

21:                                               ; preds = %18
  %22 = load ptr, ptr %9, align 8, !tbaa !47
  %23 = load ptr, ptr %5, align 8, !tbaa !30
  %24 = getelementptr inbounds nuw %struct.lua_State, ptr %23, i32 0, i32 16
  %25 = icmp ne ptr %22, %24
  br label %26

26:                                               ; preds = %21, %18
  %27 = phi i1 [ false, %18 ], [ %25, %21 ]
  br i1 %27, label %28, label %35

28:                                               ; preds = %26
  %29 = load i32, ptr %6, align 4, !tbaa !9
  %30 = add nsw i32 %29, -1
  store i32 %30, ptr %6, align 4, !tbaa !9
  br label %31

31:                                               ; preds = %28
  %32 = load ptr, ptr %9, align 8, !tbaa !47
  %33 = getelementptr inbounds nuw %struct.CallInfo, ptr %32, i32 0, i32 2
  %34 = load ptr, ptr %33, align 8, !tbaa !49
  store ptr %34, ptr %9, align 8, !tbaa !47
  br label %18

35:                                               ; preds = %26
  %36 = load i32, ptr %6, align 4, !tbaa !9
  %37 = icmp eq i32 %36, 0
  br i1 %37, label %38, label %47

38:                                               ; preds = %35
  %39 = load ptr, ptr %9, align 8, !tbaa !47
  %40 = load ptr, ptr %5, align 8, !tbaa !30
  %41 = getelementptr inbounds nuw %struct.lua_State, ptr %40, i32 0, i32 16
  %42 = icmp ne ptr %39, %41
  br i1 %42, label %43, label %47

43:                                               ; preds = %38
  store i32 1, ptr %8, align 4, !tbaa !9
  %44 = load ptr, ptr %9, align 8, !tbaa !47
  %45 = load ptr, ptr %7, align 8, !tbaa !50
  %46 = getelementptr inbounds nuw %struct.lua_Debug, ptr %45, i32 0, i32 17
  store ptr %44, ptr %46, align 8, !tbaa !52
  br label %48

47:                                               ; preds = %38, %35
  store i32 0, ptr %8, align 4, !tbaa !9
  br label %48

48:                                               ; preds = %47, %43
  %49 = load i32, ptr %8, align 4, !tbaa !9
  store i32 %49, ptr %4, align 4
  store i32 1, ptr %10, align 4
  br label %50

50:                                               ; preds = %48, %13
  call void @llvm.lifetime.end.p0(i64 8, ptr %9) #8
  call void @llvm.lifetime.end.p0(i64 4, ptr %8) #8
  %51 = load i32, ptr %4, align 4
  ret i32 %51
}