; Function Attrs: nofree norecurse nosync nounwind memory(read, argmem: readwrite, inaccessiblemem: none) uwtable
define dso_local range(i32 0, 2) i32 @lua_getstack(ptr noundef readonly captures(address) %0, i32 noundef %1, ptr noundef writeonly captures(none) %2) local_unnamed_addr #5 {
  %4 = icmp slt i32 %1, 0
  br i1 %4, label %19, label %5

5:                                                ; preds = %3
  %6 = getelementptr inbounds nuw i8, ptr %0, i64 32
  %7 = getelementptr inbounds nuw i8, ptr %0, i64 96
  %.018 = load ptr, ptr %6, align 8, !tbaa !42
  %8 = icmp ne i32 %1, 0
  %9 = icmp ne ptr %.018, %7
  %10 = select i1 %8, i1 %9, i1 false
  br i1 %10, label %.lr.ph, label %._crit_edge

.lr.ph:                                           ; preds = %5, %.lr.ph
  %.020 = phi ptr [ %.0, %.lr.ph ], [ %.018, %5 ]
  %.01519 = phi i32 [ %11, %.lr.ph ], [ %1, %5 ]
  %11 = add nsw i32 %.01519, -1
  %12 = getelementptr inbounds nuw i8, ptr %.020, i64 16
  %.0 = load ptr, ptr %12, align 8, !tbaa !42
  %13 = icmp ne i32 %11, 0
  %14 = icmp ne ptr %.0, %7
  %15 = select i1 %13, i1 %14, i1 false
  br i1 %15, label %.lr.ph, label %._crit_edge

._crit_edge:                                      ; preds = %.lr.ph, %5
  %.015.lcssa = phi i32 [ %1, %5 ], [ %11, %.lr.ph ]
  %.0.lcssa = phi ptr [ %.018, %5 ], [ %.0, %.lr.ph ]
  %.lcssa = phi i1 [ %9, %5 ], [ %14, %.lr.ph ]
  %16 = icmp eq i32 %.015.lcssa, 0
  %brmerge.not = select i1 %16, i1 %.lcssa, i1 false
  br i1 %brmerge.not, label %17, label %19

17:                                               ; preds = %._crit_edge
  %18 = getelementptr inbounds nuw i8, ptr %2, i64 136
  store ptr %.0.lcssa, ptr %18, align 8, !tbaa !43
  br label %19

19:                                               ; preds = %17, %._crit_edge, %3
  %.014 = phi i32 [ 0, %3 ], [ 1, %17 ], [ 0, %._crit_edge ]
  ret i32 %.014
}